target datalayout = "e-m:e-p270:32:32-p271:32:32-p272:64:64-i64:64-i128:128-f80:128-n8:16:32:64-S128"
target triple = "x86_64-pc-linux-gnu"

%struct.DTableDesc = type { i8, i8, i8, i8 }

; Function Attrs: nounwind uwtable
define internal i32 @HUFv07_getDTableDesc(ptr noundef %0) #0 {
  %2 = alloca %struct.DTableDesc, align 1
  %3 = alloca ptr, align 8
  store ptr %0, ptr %3, align 8, !tbaa !10
  %4 = load ptr, ptr %3, align 8, !tbaa !10
  call void @llvm.memcpy.p0.p0.i64(ptr align 1 %2, ptr align 4 %4, i64 4, i1 false)
  %5 = load i32, ptr %2, align 1
  ret i32 %5
}

; Function Attrs: nounwind uwtable
define i64 @HUFv07_decompress4X_usingDTable(ptr noundef %0, i64 noundef %1, ptr noundef %2, i64 noundef %3, ptr noundef %4) #0 {
  %6 = alloca ptr, align 8
  %7 = alloca i64, align 8
  %8 = alloca ptr, align 8
  %9 = alloca i64, align 8
  %10 = alloca ptr, align 8
  %11 = alloca %struct.DTableDesc, align 1
  store ptr %0, ptr %6, align 8, !tbaa !12
  store i64 %1, ptr %7, align 8, !tbaa !3
  store ptr %2, ptr %8, align 8, !tbaa !12
  store i64 %3, ptr %9, align 8, !tbaa !3
  store ptr %4, ptr %10, align 8, !tbaa !10
  call void @llvm.lifetime.start.p0(i64 4, ptr %11) #11
  %12 = load ptr, ptr %10, align 8, !tbaa !10
  %13 = call i32 @HUFv07_getDTableDesc(ptr noundef %12)
  store i32 %13, ptr %11, align 1
  %14 = getelementptr inbounds nuw %struct.DTableDesc, ptr %11, i32 0, i32 1
  %15 = load i8, ptr %14, align 1, !tbaa !44
  %16 = zext i8 %15 to i32
  %17 = icmp ne i32 %16, 0
  br i1 %17, label %18, label %25

18:                                               ; preds = %5
  %19 = load ptr, ptr %6, align 8, !tbaa !12
  %20 = load i64, ptr %7, align 8, !tbaa !3
  %21 = load ptr, ptr %8, align 8, !tbaa !12
  %22 = load i64, ptr %9, align 8, !tbaa !3
  %23 = load ptr, ptr %10, align 8, !tbaa !10
  %24 = call i64 @HUFv07_decompress4X4_usingDTable_internal(ptr noundef %19, i64 noundef %20, ptr noundef %21, i64 noundef %22, ptr noundef %23)
  br label %32

25:                                               ; preds = %5
  %26 = load ptr, ptr %6, align 8, !tbaa !12
  %27 = load i64, ptr %7, align 8, !tbaa !3
  %28 = load ptr, ptr %8, align 8, !tbaa !12
  %29 = load i64, ptr %9, align 8, !tbaa !3
  %30 = load ptr, ptr %10, align 8, !tbaa !10
  %31 = call i64 @HUFv07_decompress4X2_usingDTable_internal(ptr noundef %26, i64 noundef %27, ptr noundef %28, i64 noundef %29, ptr noundef %30)
  br label %32

32:                                               ; preds = %25, %18
  %33 = phi i64 [ %24, %18 ], [ %31, %25 ]
  call void @llvm.lifetime.end.p0(i64 4, ptr %11) #11
  ret i64 %33
}